target datalayout = "e-m:e-p270:32:32-p271:32:32-p272:64:64-i64:64-i128:128-f80:128-n8:16:32:64-S128"
target triple = "x86_64-pc-linux-gnu"

%class.XMMRegister = type { i32 }

; Function Attrs: mustprogress nounwind uwtable
define hidden void @_ZN17C2_MacroAssembler9vextendbwEb11XMMRegisterS0_(ptr noundef nonnull align 8 dereferenceable(40) %0, i1 noundef zeroext %1, i32 %2, i32 %3) #1 align 2 {
  %5 = alloca %class.XMMRegister, align 4
  %6 = alloca %class.XMMRegister, align 4
  %7 = alloca ptr, align 8
  %8 = alloca i8, align 1
  %9 = alloca %class.XMMRegister, align 4
  %10 = alloca %class.XMMRegister, align 4
  %11 = alloca %class.XMMRegister, align 4
  %12 = alloca %class.XMMRegister, align 4
  %13 = getelementptr inbounds %class.XMMRegister, ptr %5, i32 0, i32 0
  store i32 %2, ptr %13, align 4
  %14 = getelementptr inbounds %class.XMMRegister, ptr %6, i32 0, i32 0
  store i32 %3, ptr %14, align 4
  store ptr %0, ptr %7, align 8
  %15 = zext i1 %1 to i8
  store i8 %15, ptr %8, align 1
  %16 = load ptr, ptr %7, align 8
  %17 = load i8, ptr %8, align 1
  %18 = trunc i8 %17 to i1
  br i1 %18, label %19, label %24

19:                                               ; preds = %4
  call void @llvm.memcpy.p0.p0.i64(ptr align 4 %9, ptr align 4 %5, i64 4, i1 false)
  call void @llvm.memcpy.p0.p0.i64(ptr align 4 %10, ptr align 4 %6, i64 4, i1 false)
  %20 = getelementptr inbounds %class.XMMRegister, ptr %9, i32 0, i32 0
  %21 = load i32, ptr %20, align 4
  %22 = getelementptr inbounds %class.XMMRegister, ptr %10, i32 0, i32 0
  %23 = load i32, ptr %22, align 4
  call void @_ZN9Assembler8pmovsxbwE11XMMRegisterS0_(ptr noundef nonnull align 8 dereferenceable(40) %16, i32 %21, i32 %23)
  br label %29

24:                                               ; preds = %4
  call void @llvm.memcpy.p0.p0.i64(ptr align 4 %11, ptr align 4 %5, i64 4, i1 false)
  call void @llvm.memcpy.p0.p0.i64(ptr align 4 %12, ptr align 4 %6, i64 4, i1 false)
  %25 = getelementptr inbounds %class.XMMRegister, ptr %11, i32 0, i32 0
  %26 = load i32, ptr %25, align 4
  %27 = getelementptr inbounds %class.XMMRegister, ptr %12, i32 0, i32 0
  %28 = load i32, ptr %27, align 4
  call void @_ZN14MacroAssembler8pmovzxbwE11XMMRegisterS0_(ptr noundef nonnull align 8 dereferenceable(40) %16, i32 %26, i32 %28)
  br label %29

29:                                               ; preds = %24, %19
  ret void
}