; Function Attrs: mustprogress nounwind uwtable
define hidden void @_ZN17C2_MacroAssembler9vextendbwEb11XMMRegisterS0_(ptr noundef nonnull align 8 dereferenceable(40) %0, i1 noundef zeroext %1, i32 %2, i32 %3) local_unnamed_addr #0 align 2 {
  br i1 %1, label %5, label %6

5:                                                ; preds = %4
  tail call void @_ZN9Assembler8pmovsxbwE11XMMRegisterS0_(ptr noundef nonnull align 8 dereferenceable(40) %0, i32 %2, i32 %3) #11
  br label %7

6:                                                ; preds = %4
  tail call void @_ZN14MacroAssembler8pmovzxbwE11XMMRegisterS0_(ptr noundef nonnull align 8 dereferenceable(40) %0, i32 %2, i32 %3) #11
  br label %7

7:                                                ; preds = %6, %5
  ret void
}